; Function Attrs: mustprogress uwtable
define void @_ZN3gmx24CommandLineModuleManager4ImplC2EPKcPNS_25CommandLineProgramContextE(ptr noundef nonnull align 8 dereferenceable(129) %0, ptr noundef %1, ptr noundef %2) unnamed_addr #0 align 2 personality ptr @__gxx_personality_v0 {
  %4 = alloca %"class.std::allocator.14", align 1
  %5 = getelementptr inbounds i8, ptr %0, i64 8
  store i32 0, ptr %5, align 8
  %6 = getelementptr inbounds i8, ptr %0, i64 16
  store ptr null, ptr %6, align 8
  %7 = getelementptr inbounds i8, ptr %0, i64 24
  store ptr %5, ptr %7, align 8
  %8 = getelementptr inbounds i8, ptr %0, i64 32
  store ptr %5, ptr %8, align 8
  %9 = getelementptr inbounds i8, ptr %0, i64 40
  %10 = getelementptr inbounds i8, ptr %0, i64 72
  tail call void @llvm.memset.p0.i64(ptr noundef nonnull align 8 dereferenceable(32) %9, i8 0, i64 32, i1 false)
  store ptr %2, ptr %10, align 8
  %11 = getelementptr inbounds i8, ptr %0, i64 80
  %.not = icmp eq ptr %1, null
  %12 = select i1 %.not, ptr @.str.18, ptr %1
  call void @_ZNSaIcEC1Ev(ptr noundef nonnull align 1 dereferenceable(1) %4) #21
  %13 = invoke noundef ptr @_ZNSt7__cxx1112basic_stringIcSt11char_traitsIcESaIcEE13_M_local_dataEv(ptr noundef nonnull align 8 dereferenceable(32) %11)
          to label %.noexc unwind label %23

.noexc:                                           ; preds = %3
  invoke void @_ZNSt7__cxx1112basic_stringIcSt11char_traitsIcESaIcEE12_Alloc_hiderC1EPcRKS3_(ptr noundef nonnull align 8 dereferenceable(8) %11, ptr noundef %13, ptr noundef nonnull align 1 dereferenceable(1) %4)
          to label %.noexc7 unwind label %23

.noexc7:                                          ; preds = %.noexc
  %14 = call noundef i64 @strlen(ptr noundef nonnull dereferenceable(1) %12) #21
  %15 = getelementptr inbounds i8, ptr %12, i64 %14
  invoke void @_ZNSt7__cxx1112basic_stringIcSt11char_traitsIcESaIcEE12_M_constructIPKcEEvT_S8_St20forward_iterator_tag(ptr noundef nonnull align 8 dereferenceable(32) %11, ptr noundef nonnull %12, ptr noundef nonnull %15)
          to label %_ZNSt7__cxx1112basic_stringIcSt11char_traitsIcESaIcEEC2IS3_EEPKcRKS3_.exit unwind label %16

16:                                               ; preds = %.noexc7
  %17 = landingpad { ptr, i32 }
          cleanup
  call void @_ZNSaIcED2Ev(ptr noundef nonnull align 1 dereferenceable(1) %11) #21
  br label %.body

_ZNSt7__cxx1112basic_stringIcSt11char_traitsIcESaIcEEC2IS3_EEPKcRKS3_.exit: ; preds = %.noexc7
  call void @_ZNSaIcED1Ev(ptr noundef nonnull align 1 dereferenceable(1) %4) #21
  %18 = getelementptr inbounds i8, ptr %0, i64 112
  call void @llvm.memset.p0.i64(ptr noundef nonnull align 8 dereferenceable(17) %18, i8 0, i64 17, i1 false)
  %19 = call noundef i64 @_ZNKSt7__cxx1112basic_stringIcSt11char_traitsIcESaIcEE4findEcm(ptr noundef nonnull align 8 dereferenceable(32) %11, i8 noundef signext 45, i64 noundef 0) #21
  %20 = icmp eq i64 %19, -1
  br i1 %20, label %22, label %21

21:                                               ; preds = %_ZNSt7__cxx1112basic_stringIcSt11char_traitsIcESaIcEEC2IS3_EEPKcRKS3_.exit
  invoke void @_ZN3gmx8internal13assertHandlerEPKcS2_S2_S2_i(ptr noundef nonnull @.str.20, ptr noundef nonnull @.str.21, ptr noundef nonnull @"__PRETTY_FUNCTION__._ZZN3gmx24CommandLineModuleManager4ImplC1EPKcPNS_25CommandLineProgramContextEENK3$_0clEv", ptr noundef nonnull @.str.22, i32 noundef 321) #22
          to label %.noexc8 unwind label %25

.noexc8:                                          ; preds = %21
  unreachable

22:                                               ; preds = %_ZNSt7__cxx1112basic_stringIcSt11char_traitsIcESaIcEEC2IS3_EEPKcRKS3_.exit
  ret void

23:                                               ; preds = %.noexc, %3
  %24 = landingpad { ptr, i32 }
          cleanup
  br label %.body

.body:                                            ; preds = %16, %23
  %eh.lpad-body = phi { ptr, i32 } [ %24, %23 ], [ %17, %16 ]
  call void @_ZNSaIcED1Ev(ptr noundef nonnull align 1 dereferenceable(1) %4) #21
  br label %27

25:                                               ; preds = %21
  %26 = landingpad { ptr, i32 }
          cleanup
  call void @_ZNSt7__cxx1112basic_stringIcSt11char_traitsIcESaIcEED1Ev(ptr noundef nonnull align 8 dereferenceable(32) %11) #21
  br label %27

27:                                               ; preds = %25, %.body
  %.pn = phi { ptr, i32 } [ %26, %25 ], [ %eh.lpad-body, %.body ]
  %28 = getelementptr inbounds i8, ptr %0, i64 48
  call void @_ZNSt6vectorISt10unique_ptrIN3gmx26CommandLineModuleGroupDataESt14default_deleteIS2_EESaIS5_EED2Ev(ptr noundef nonnull align 8 dereferenceable(24) %28) #21
  call void @_ZNSt3mapINSt7__cxx1112basic_stringIcSt11char_traitsIcESaIcEEESt10unique_ptrIN3gmx18ICommandLineModuleESt14default_deleteIS8_EESt4lessIS5_ESaISt4pairIKS5_SB_EEED2Ev(ptr noundef nonnull align 8 dereferenceable(48) %0) #21
  resume { ptr, i32 } %.pn
}